target datalayout = "e-m:e-p270:32:32-p271:32:32-p272:64:64-i64:64-i128:128-f80:128-n8:16:32:64-S128"
target triple = "x86_64-pc-linux-gnu"

%struct.slurm_opt_t = type { ptr, ptr, ptr, ptr, ptr, ptr, ptr, ptr, i32, ptr, ptr, ptr, ptr, i32, i32, ptr, i32, i8, i8, i32, i8, i32, i32, ptr, i8, i32, i32, i64, i32, i32, i32, i32, i32, i32, ptr, i32, ptr, i8, i32, i32, ptr, i32, i32, i32, ptr, ptr, i32, i32, ptr, ptr, ptr, i32, i16, i16, i16, i8, i8, ptr, i8, i16, ptr, ptr, i32, i32, i32, ptr, ptr, ptr, ptr, ptr, ptr, i32, i64, i64, i64, i16, i64, ptr, ptr, ptr, ptr, ptr, ptr, ptr, i8, ptr, ptr, ptr, ptr, i8, i64, ptr, i16, ptr, i32, i32, ptr, ptr, i32, i32, i32, ptr, i32, i32, i32, i32, i32, ptr, i64, i32, i16, i32, ptr, ptr, ptr, ptr, ptr, i16, ptr, ptr, i16, i8, ptr, ptr, ptr, ptr }
%struct.srun_opt_t = type { i16, ptr, ptr, ptr, i8, ptr, i16, i8, ptr, i32, i8, i8, i8, ptr, i8, i8, i8, i32, i32, i32, i8, i32, i32, i32, ptr, i8, i32, i8, i8, ptr, ptr, i32, i8, i8, ptr, ptr, ptr, i8, i32, i8, i32, ptr, ptr, i8, i8, i16, i8, i8 }

@MPIR_being_debugged = external global i32, align 4
@.str.4 = private unnamed_addr constant [9 x i8] c"launch.c\00", align 1
@__func__.launch_g_setup_srun_opt = private unnamed_addr constant [24 x i8] c"launch_g_setup_srun_opt\00", align 1

; Function Attrs: nounwind uwtable
define dso_local i32 @launch_g_setup_srun_opt(ptr noundef %0, ptr noundef %1) #0 {
  %3 = alloca ptr, align 8
  %4 = alloca ptr, align 8
  %5 = alloca ptr, align 8
  store ptr %0, ptr %3, align 8
  store ptr %1, ptr %4, align 8
  call void @llvm.lifetime.start.p0(i64 8, ptr %5) #10
  %6 = load ptr, ptr %4, align 8
  %7 = getelementptr inbounds nuw %struct.slurm_opt_t, ptr %6, i32 0, i32 3
  %8 = load ptr, ptr %7, align 8
  store ptr %8, ptr %5, align 8
  %9 = load ptr, ptr %5, align 8
  %10 = getelementptr inbounds nuw %struct.srun_opt_t, ptr %9, i32 0, i32 10
  %11 = load i8, ptr %10, align 4, !range !8, !noundef !9
  %12 = trunc i8 %11 to i1
  br i1 %12, label %13, label %14

13:                                               ; preds = %2
  store i32 1, ptr @MPIR_being_debugged, align 4
  br label %14

14:                                               ; preds = %13, %2
  %15 = load ptr, ptr %4, align 8
  %16 = getelementptr inbounds nuw %struct.slurm_opt_t, ptr %15, i32 0, i32 8
  %17 = load i32, ptr %16, align 8
  %18 = add nsw i32 %17, 2
  %19 = sext i32 %18 to i64
  %20 = call ptr @slurm_xcalloc(i64 noundef %19, i64 noundef 8, i1 noundef zeroext true, i1 noundef zeroext false, ptr noundef @.str.4, i32 noundef 1135, ptr noundef @__func__.launch_g_setup_srun_opt)
  %21 = load ptr, ptr %4, align 8
  %22 = getelementptr inbounds nuw %struct.slurm_opt_t, ptr %21, i32 0, i32 9
  store ptr %20, ptr %22, align 8
  call void @llvm.lifetime.end.p0(i64 8, ptr %5) #10
  ret i32 0
}