; Function Attrs: nounwind uwtable
define dso_local noundef i32 @launch_g_setup_srun_opt(ptr noundef readnone captures(none) %0, ptr noundef captures(none) initializes((72, 80)) %1) local_unnamed_addr #0 {
  %3 = getelementptr inbounds nuw i8, ptr %1, i64 24
  %4 = load ptr, ptr %3, align 8
  %5 = getelementptr inbounds nuw i8, ptr %4, i64 68
  %6 = load i8, ptr %5, align 4, !range !8, !noundef !9
  %7 = trunc nuw i8 %6 to i1
  br i1 %7, label %8, label %9

8:                                                ; preds = %2
  store i32 1, ptr @MPIR_being_debugged, align 4
  br label %9

9:                                                ; preds = %8, %2
  %10 = getelementptr inbounds nuw i8, ptr %1, i64 64
  %11 = load i32, ptr %10, align 8
  %12 = add nsw i32 %11, 2
  %13 = sext i32 %12 to i64
  %14 = tail call ptr @slurm_xcalloc(i64 noundef %13, i64 noundef 8, i1 noundef zeroext true, i1 noundef zeroext false, ptr noundef nonnull @.str.4, i32 noundef 1135, ptr noundef nonnull @__func__.launch_g_setup_srun_opt) #17
  %15 = getelementptr inbounds nuw i8, ptr %1, i64 72
  store ptr %14, ptr %15, align 8
  ret i32 0
}